; Function Attrs: nounwind uwtable
define internal fastcc noalias nonnull ptr @_init_l_Lean_Meta_Grind_instInhabitedIntroResult___closed__16() unnamed_addr #0 {
  %1 = load ptr, ptr @l_Lean_Meta_Grind_instInhabitedIntroResult___closed__7, align 8, !tbaa !10
  %2 = load ptr, ptr @l_Lean_Meta_Grind_instInhabitedIntroResult___closed__2, align 8, !tbaa !10
  %3 = load ptr, ptr @l_Lean_PersistentHashMap_empty___at_Lean_Meta_Grind_Arith_Cutsat_instInhabitedState___spec__1, align 8, !tbaa !10
  tail call void @lean_inc_heartbeat() #6
  %4 = tail call noalias ptr @mi_malloc_small(i64 noundef 152) #6
  %5 = icmp eq ptr %4, null
  br i1 %5, label %6, label %lean_alloc_ctor.exit

6:                                                ; preds = %0
  tail call void @lean_internal_panic_out_of_memory() #7
  unreachable

lean_alloc_ctor.exit:                             ; preds = %0
  %7 = getelementptr inbounds nuw i8, ptr %4, i64 4
  %8 = getelementptr inbounds nuw i8, ptr %4, i64 144
  store i64 0, ptr %8, align 8, !tbaa !12
  store i32 1, ptr %4, align 4, !tbaa !4
  store i32 1114264, ptr %7, align 4
  %9 = getelementptr inbounds nuw i8, ptr %4, i64 8
  store ptr %1, ptr %9, align 8, !tbaa !10
  %10 = getelementptr inbounds nuw i8, ptr %4, i64 16
  store ptr %2, ptr %10, align 8, !tbaa !10
  %11 = getelementptr inbounds nuw i8, ptr %4, i64 24
  store ptr %2, ptr %11, align 8, !tbaa !10
  %12 = getelementptr inbounds nuw i8, ptr %4, i64 32
  store ptr %2, ptr %12, align 8, !tbaa !10
  %13 = getelementptr inbounds nuw i8, ptr %4, i64 40
  store ptr %2, ptr %13, align 8, !tbaa !10
  %14 = getelementptr inbounds nuw i8, ptr %4, i64 48
  store ptr %1, ptr %14, align 8, !tbaa !10
  %15 = getelementptr inbounds nuw i8, ptr %4, i64 56
  store ptr %1, ptr %15, align 8, !tbaa !10
  %16 = getelementptr inbounds nuw i8, ptr %4, i64 64
  store ptr %1, ptr %16, align 8, !tbaa !10
  %17 = getelementptr inbounds nuw i8, ptr %4, i64 72
  store ptr %1, ptr %17, align 8, !tbaa !10
  %18 = getelementptr inbounds nuw i8, ptr %4, i64 80
  store ptr %1, ptr %18, align 8, !tbaa !10
  %19 = getelementptr inbounds nuw i8, ptr %4, i64 88
  store ptr inttoptr (i64 1 to ptr), ptr %19, align 8, !tbaa !10
  %20 = getelementptr inbounds nuw i8, ptr %4, i64 96
  store ptr %1, ptr %20, align 8, !tbaa !10
  %21 = getelementptr inbounds nuw i8, ptr %4, i64 104
  store ptr %1, ptr %21, align 8, !tbaa !10
  %22 = getelementptr inbounds nuw i8, ptr %4, i64 112
  store ptr inttoptr (i64 1 to ptr), ptr %22, align 8, !tbaa !10
  %23 = getelementptr inbounds nuw i8, ptr %4, i64 120
  store ptr inttoptr (i64 1 to ptr), ptr %23, align 8, !tbaa !10
  %24 = getelementptr inbounds nuw i8, ptr %4, i64 128
  store ptr %2, ptr %24, align 8, !tbaa !10
  %25 = getelementptr inbounds nuw i8, ptr %4, i64 136
  store ptr %3, ptr %25, align 8, !tbaa !10
  ret ptr %4
}